target datalayout = "e-m:e-p270:32:32-p271:32:32-p272:64:64-i64:64-i128:128-f80:128-n8:16:32:64-S128"
target triple = "x86_64-pc-linux-gnu"

%struct.MPVWorkPicture = type { [3 x ptr], [3 x i64], ptr, ptr, [2 x ptr], ptr, ptr, [2 x ptr], i32 }
%struct.MPVPicture = type { ptr, ptr, ptr, [2 x ptr], [2 x ptr], ptr, ptr, ptr, [2 x ptr], ptr, i32, i32, i32, i32, i32, i32, i32, i32, i32, i32, %struct.ThreadProgress }
%struct.ThreadProgress = type { i32, i32, %union.pthread_mutex_t, %union.pthread_cond_t }
%union.pthread_mutex_t = type { %struct.__pthread_mutex_s }
%struct.__pthread_mutex_s = type { i32, i32, i32, i32, i32, i16, i16, %struct.__pthread_internal_list }
%struct.__pthread_internal_list = type { ptr, ptr }
%union.pthread_cond_t = type { %struct.__pthread_cond_s }
%struct.__pthread_cond_s = type { %union.__atomic_wide_counter, %union.__atomic_wide_counter, [2 x i32], [2 x i32], i32, i32, [2 x i32] }
%union.__atomic_wide_counter = type { i64 }

; Function Attrs: cold nounwind optsize uwtable
define internal i32 @alloc_dummy_frame(ptr noundef %0, ptr noundef %1) #0 {
  %3 = alloca i32, align 4
  %4 = alloca ptr, align 8
  %5 = alloca ptr, align 8
  %6 = alloca ptr, align 8
  %7 = alloca i32, align 4
  %8 = alloca i32, align 4
  store ptr %0, ptr %4, align 8, !tbaa !4
  store ptr %1, ptr %5, align 8, !tbaa !92
  call void @llvm.lifetime.start.p0(i64 8, ptr %6) #11
  call void @llvm.lifetime.start.p0(i64 4, ptr %7) #11
  %9 = load ptr, ptr %4, align 8, !tbaa !4
  %10 = load ptr, ptr %5, align 8, !tbaa !92
  %11 = call i32 @alloc_picture(ptr noundef %9, ptr noundef %10, i32 noundef 1)
  store i32 %11, ptr %7, align 4, !tbaa !68
  %12 = load i32, ptr %7, align 4, !tbaa !68
  %13 = icmp slt i32 %12, 0
  br i1 %13, label %14, label %16

14:                                               ; preds = %2
  %15 = load i32, ptr %7, align 4, !tbaa !68
  store i32 %15, ptr %3, align 4
  store i32 1, ptr %8, align 4
  br label %24

16:                                               ; preds = %2
  %17 = load ptr, ptr %5, align 8, !tbaa !92
  %18 = getelementptr inbounds nuw %struct.MPVWorkPicture, ptr %17, i32 0, i32 2
  %19 = load ptr, ptr %18, align 8, !tbaa !94
  store ptr %19, ptr %6, align 8, !tbaa !95
  %20 = load ptr, ptr %6, align 8, !tbaa !95
  %21 = getelementptr inbounds nuw %struct.MPVPicture, ptr %20, i32 0, i32 13
  store i32 1, ptr %21, align 4, !tbaa !96
  %22 = load ptr, ptr %6, align 8, !tbaa !95
  %23 = getelementptr inbounds nuw %struct.MPVPicture, ptr %22, i32 0, i32 20
  call void @ff_thread_progress_report(ptr noundef %23, i32 noundef 2147483647)
  store i32 0, ptr %3, align 4
  store i32 1, ptr %8, align 4
  br label %24

24:                                               ; preds = %16, %14
  call void @llvm.lifetime.end.p0(i64 4, ptr %7) #11
  call void @llvm.lifetime.end.p0(i64 8, ptr %6) #11
  %25 = load i32, ptr %3, align 4
  ret i32 %25
}