; Function Attrs: cold nounwind optsize uwtable
define internal fastcc range(i32 -2147483648, 1) i32 @alloc_dummy_frame(ptr noundef %0, ptr noundef %1) unnamed_addr #0 {
  %3 = tail call fastcc i32 @alloc_picture(ptr noundef %0, ptr noundef %1, i32 noundef 1)
  %4 = icmp slt i32 %3, 0
  br i1 %4, label %10, label %5

5:                                                ; preds = %2
  %6 = getelementptr inbounds nuw i8, ptr %1, i64 48
  %7 = load ptr, ptr %6, align 8, !tbaa !86
  %8 = getelementptr inbounds nuw i8, ptr %7, i64 116
  store i32 1, ptr %8, align 4, !tbaa !87
  %9 = getelementptr inbounds nuw i8, ptr %7, i64 144
  tail call void @ff_thread_progress_report(ptr noundef nonnull %9, i32 noundef 2147483647) #10
  br label %10

10:                                               ; preds = %2, %5
  ret i32 %3
}